target datalayout = "e-m:e-p270:32:32-p271:32:32-p272:64:64-i64:64-i128:128-f80:128-n8:16:32:64-S128"
target triple = "x86_64-unknown-linux-gnu"

; Function Attrs: nounwind sspstrong uwtable
define hidden i32 @FLAC__bitwriter_write_raw_uint32(ptr noundef %bw, i32 noundef %val, i32 noundef %bits) #0 {
entry:
  %retval = alloca i32, align 4
  %bw.addr = alloca ptr, align 8
  %val.addr = alloca i32, align 4
  %bits.addr = alloca i32, align 4
  store ptr %bw, ptr %bw.addr, align 8
  store i32 %val, ptr %val.addr, align 4
  store i32 %bits, ptr %bits.addr, align 4
  %0 = load i32, ptr %bits.addr, align 4
  %cmp = icmp ult i32 %0, 32
  br i1 %cmp, label %land.lhs.true, label %if.end

land.lhs.true:                                    ; preds = %entry
  %1 = load i32, ptr %val.addr, align 4
  %2 = load i32, ptr %bits.addr, align 4
  %shr = lshr i32 %1, %2
  %cmp1 = icmp ne i32 %shr, 0
  br i1 %cmp1, label %if.then, label %if.end

if.then:                                          ; preds = %land.lhs.true
  store i32 0, ptr %retval, align 4
  br label %return

if.end:                                           ; preds = %land.lhs.true, %entry
  %3 = load ptr, ptr %bw.addr, align 8
  %4 = load i32, ptr %val.addr, align 4
  %5 = load i32, ptr %bits.addr, align 4
  %call = call i32 @FLAC__bitwriter_write_raw_uint32_nocheck(ptr noundef %3, i32 noundef %4, i32 noundef %5)
  store i32 %call, ptr %retval, align 4
  br label %return

return:                                           ; preds = %if.end, %if.then
  %6 = load i32, ptr %retval, align 4
  ret i32 %6
}