; Function Attrs: mustprogress nounwind sspstrong willreturn uwtable
define hidden range(i32 0, 2) i32 @FLAC__bitwriter_write_raw_uint32(ptr noundef %bw, i32 noundef %val, i32 noundef %bits) local_unnamed_addr #2 {
entry:
  %cmp = icmp ugt i32 %bits, 31
  %shr = lshr i32 %val, %bits
  %cmp1.not = icmp eq i32 %shr, 0
  %or.cond = select i1 %cmp, i1 true, i1 %cmp1.not
  br i1 %or.cond, label %if.end, label %return

if.end:                                           ; preds = %entry
  %call = tail call fastcc i32 @FLAC__bitwriter_write_raw_uint32_nocheck(ptr noundef %bw, i32 noundef %val, i32 noundef %bits)
  br label %return

return:                                           ; preds = %entry, %if.end
  %retval.0 = phi i32 [ %call, %if.end ], [ 0, %entry ]
  ret i32 %retval.0
}